target datalayout = "e-m:e-p270:32:32-p271:32:32-p272:64:64-i64:64-i128:128-f80:128-n8:16:32:64-S128"
target triple = "x86_64-pc-linux-gnu"

%struct.radix_thread_st = type { ptr, ptr, ptr, i64, i64, [8 x ptr], [8 x ptr], ptr, ptr, ptr, i32, i32, i64 }
%union.BIO_sock_info_u = type { ptr }

@.str.44 = private unnamed_addr constant [33 x i8] c"../openssl/test/radix/quic_ops.c\00", align 1
@.str.67 = private unnamed_addr constant [2 x i8] c"0\00", align 1
@.str.74 = private unnamed_addr constant [38 x i8] c"../openssl/test/radix/quic_bindings.c\00", align 1
@.str.86 = private unnamed_addr constant [10 x i8] c"NUM_SLOTS\00", align 1
@radix_thread = internal global i32 0, align 4
@.str.93 = private unnamed_addr constant [4 x i8] c"idx\00", align 1
@.str.94 = private unnamed_addr constant [24 x i8] c"*p_ssl = RT()->ssl[idx]\00", align 1
@.str.97 = private unnamed_addr constant [39 x i8] c"expect_slot_ssl(fctx, (0), &(dst_ssl))\00", align 1
@.str.98 = private unnamed_addr constant [39 x i8] c"expect_slot_ssl(fctx, (1), &(src_ssl))\00", align 1
@.str.99 = private unnamed_addr constant [8 x i8] c"dst_bio\00", align 1
@.str.100 = private unnamed_addr constant [8 x i8] c"src_bio\00", align 1
@.str.101 = private unnamed_addr constant [26 x i8] c"src_addr = BIO_ADDR_new()\00", align 1
@.str.102 = private unnamed_addr constant [29 x i8] c"BIO_get_fd(src_bio, &src_fd)\00", align 1
@.str.103 = private unnamed_addr constant [7 x i8] c"src_fd\00", align 1
@.str.104 = private unnamed_addr constant [56 x i8] c"BIO_sock_info(src_fd, BIO_SOCK_INFO_ADDRESS, &src_info)\00", align 1
@.str.105 = private unnamed_addr constant [34 x i8] c"ntohs(BIO_ADDR_rawport(src_addr))\00", align 1
@.str.106 = private unnamed_addr constant [38 x i8] c"BIO_dgram_set_peer(dst_bio, src_addr)\00", align 1

; Function Attrs: nounwind uwtable
define internal ptr @radix_get_thread() #0 {
  %1 = call ptr @CRYPTO_THREAD_get_local(ptr noundef @radix_thread)
  ret ptr %1
}

; Function Attrs: inlinehint nounwind uwtable
define internal zeroext i16 @__bswap_16(i16 noundef zeroext %0) #5 {
  %2 = alloca i16, align 2
  store i16 %0, ptr %2, align 2, !tbaa !79
  %3 = load i16, ptr %2, align 2, !tbaa !79
  %4 = zext i16 %3 to i32
  %5 = ashr i32 %4, 8
  %6 = and i32 %5, 255
  %7 = load i16, ptr %2, align 2, !tbaa !79
  %8 = zext i16 %7 to i32
  %9 = and i32 %8, 255
  %10 = shl i32 %9, 8
  %11 = or i32 %6, %10
  %12 = trunc i32 %11 to i16
  ret i16 %12
}

; Function Attrs: nounwind uwtable
define internal i32 @expect_slot_ssl(ptr noundef %0, i64 noundef %1, ptr noundef %2) #0 {
  %4 = alloca i32, align 4
  %5 = alloca ptr, align 8
  %6 = alloca i64, align 8
  %7 = alloca ptr, align 8
  store ptr %0, ptr %5, align 8, !tbaa !42
  store i64 %1, ptr %6, align 8, !tbaa !19
  store ptr %2, ptr %7, align 8, !tbaa !90
  %8 = load i64, ptr %6, align 8, !tbaa !19
  %9 = call i32 @test_size_t_lt(ptr noundef @.str.74, i32 noundef 670, ptr noundef @.str.93, ptr noundef @.str.86, i64 noundef %8, i64 noundef 8)
  %10 = icmp ne i32 %9, 0
  br i1 %10, label %11, label %20

11:                                               ; preds = %3
  %12 = call ptr @radix_get_thread()
  %13 = getelementptr inbounds nuw %struct.radix_thread_st, ptr %12, i32 0, i32 6
  %14 = load i64, ptr %6, align 8, !tbaa !19
  %15 = getelementptr inbounds nuw [8 x ptr], ptr %13, i64 0, i64 %14
  %16 = load ptr, ptr %15, align 8, !tbaa !49
  %17 = load ptr, ptr %7, align 8, !tbaa !90
  store ptr %16, ptr %17, align 8, !tbaa !49
  %18 = call i32 @test_ptr(ptr noundef @.str.74, i32 noundef 671, ptr noundef @.str.94, ptr noundef %16)
  %19 = icmp ne i32 %18, 0
  br i1 %19, label %21, label %20

20:                                               ; preds = %11, %3
  store i32 0, ptr %4, align 4
  br label %22

21:                                               ; preds = %11
  store i32 1, ptr %4, align 4
  br label %22

22:                                               ; preds = %21, %20
  %23 = load i32, ptr %4, align 4
  ret i32 %23
}

; Function Attrs: nounwind uwtable
define internal i32 @hf_set_peer_addr_from(ptr noundef %0) #0 {
  %2 = alloca ptr, align 8
  %3 = alloca i32, align 4
  %4 = alloca ptr, align 8
  %5 = alloca ptr, align 8
  %6 = alloca ptr, align 8
  %7 = alloca ptr, align 8
  %8 = alloca i32, align 4
  %9 = alloca %union.BIO_sock_info_u, align 8
  %10 = alloca ptr, align 8
  store ptr %0, ptr %2, align 8, !tbaa !42
  call void @llvm.lifetime.start.p0(i64 4, ptr %3) #9
  store i32 0, ptr %3, align 4, !tbaa !9
  call void @llvm.lifetime.start.p0(i64 8, ptr %4) #9
  call void @llvm.lifetime.start.p0(i64 8, ptr %5) #9
  call void @llvm.lifetime.start.p0(i64 8, ptr %6) #9
  call void @llvm.lifetime.start.p0(i64 8, ptr %7) #9
  call void @llvm.lifetime.start.p0(i64 4, ptr %8) #9
  store i32 -1, ptr %8, align 4, !tbaa !9
  call void @llvm.lifetime.start.p0(i64 8, ptr %9) #9
  call void @llvm.lifetime.start.p0(i64 8, ptr %10) #9
  store ptr null, ptr %10, align 8, !tbaa !55
  br label %11

11:                                               ; preds = %1
  store ptr null, ptr %4, align 8, !tbaa !49
  %12 = load ptr, ptr %2, align 8, !tbaa !42
  %13 = call i32 @expect_slot_ssl(ptr noundef %12, i64 noundef 0, ptr noundef %4)
  %14 = icmp ne i32 %13, 0
  %15 = zext i1 %14 to i32
  %16 = call i32 @test_true(ptr noundef @.str.44, i32 noundef 944, ptr noundef @.str.97, i32 noundef %15)
  %17 = icmp ne i32 %16, 0
  br i1 %17, label %19, label %18

18:                                               ; preds = %11
  br label %89

19:                                               ; preds = %11
  br label %20

20:                                               ; preds = %19
  br label %21

21:                                               ; preds = %20
  br label %22

22:                                               ; preds = %21
  store ptr null, ptr %5, align 8, !tbaa !49
  %23 = load ptr, ptr %2, align 8, !tbaa !42
  %24 = call i32 @expect_slot_ssl(ptr noundef %23, i64 noundef 1, ptr noundef %5)
  %25 = icmp ne i32 %24, 0
  %26 = zext i1 %25 to i32
  %27 = call i32 @test_true(ptr noundef @.str.44, i32 noundef 945, ptr noundef @.str.98, i32 noundef %26)
  %28 = icmp ne i32 %27, 0
  br i1 %28, label %30, label %29

29:                                               ; preds = %22
  br label %89

30:                                               ; preds = %22
  br label %31

31:                                               ; preds = %30
  br label %32

32:                                               ; preds = %31
  %33 = load ptr, ptr %4, align 8, !tbaa !49
  %34 = call ptr @SSL_get_rbio(ptr noundef %33)
  store ptr %34, ptr %6, align 8, !tbaa !13
  %35 = load ptr, ptr %5, align 8, !tbaa !49
  %36 = call ptr @SSL_get_rbio(ptr noundef %35)
  store ptr %36, ptr %7, align 8, !tbaa !13
  %37 = load ptr, ptr %6, align 8, !tbaa !13
  %38 = call i32 @test_ptr(ptr noundef @.str.44, i32 noundef 948, ptr noundef @.str.99, ptr noundef %37)
  %39 = icmp ne i32 %38, 0
  br i1 %39, label %40, label %44

40:                                               ; preds = %32
  %41 = load ptr, ptr %7, align 8, !tbaa !13
  %42 = call i32 @test_ptr(ptr noundef @.str.44, i32 noundef 948, ptr noundef @.str.100, ptr noundef %41)
  %43 = icmp ne i32 %42, 0
  br i1 %43, label %45, label %44

44:                                               ; preds = %40, %32
  br label %89

45:                                               ; preds = %40
  %46 = call ptr @BIO_ADDR_new()
  store ptr %46, ptr %10, align 8, !tbaa !55
  %47 = call i32 @test_ptr(ptr noundef @.str.44, i32 noundef 951, ptr noundef @.str.101, ptr noundef %46)
  %48 = icmp ne i32 %47, 0
  br i1 %48, label %50, label %49

49:                                               ; preds = %45
  br label %89

50:                                               ; preds = %45
  %51 = load ptr, ptr %7, align 8, !tbaa !13
  %52 = call i64 @BIO_ctrl(ptr noundef %51, i32 noundef 105, i64 noundef 0, ptr noundef %8)
  %53 = icmp ne i64 %52, 0
  %54 = zext i1 %53 to i32
  %55 = call i32 @test_true(ptr noundef @.str.44, i32 noundef 954, ptr noundef @.str.102, i32 noundef %54)
  %56 = icmp ne i32 %55, 0
  br i1 %56, label %57, label %61

57:                                               ; preds = %50
  %58 = load i32, ptr %8, align 4, !tbaa !9
  %59 = call i32 @test_int_ge(ptr noundef @.str.44, i32 noundef 955, ptr noundef @.str.103, ptr noundef @.str.67, i32 noundef %58, i32 noundef 0)
  %60 = icmp ne i32 %59, 0
  br i1 %60, label %62, label %61

61:                                               ; preds = %57, %50
  br label %89

62:                                               ; preds = %57
  %63 = load ptr, ptr %10, align 8, !tbaa !55
  store ptr %63, ptr %9, align 8, !tbaa !57
  %64 = load i32, ptr %8, align 4, !tbaa !9
  %65 = call i32 @BIO_sock_info(i32 noundef %64, i32 noundef 0, ptr noundef %9)
  %66 = icmp ne i32 %65, 0
  %67 = zext i1 %66 to i32
  %68 = call i32 @test_true(ptr noundef @.str.44, i32 noundef 959, ptr noundef @.str.104, i32 noundef %67)
  %69 = icmp ne i32 %68, 0
  br i1 %69, label %70, label %77

70:                                               ; preds = %62
  %71 = load ptr, ptr %10, align 8, !tbaa !55
  %72 = call zeroext i16 @BIO_ADDR_rawport(ptr noundef %71)
  %73 = call zeroext i16 @__bswap_16(i16 noundef zeroext %72)
  %74 = zext i16 %73 to i32
  %75 = call i32 @test_int_ge(ptr noundef @.str.44, i32 noundef 960, ptr noundef @.str.105, ptr noundef @.str.67, i32 noundef %74, i32 noundef 0)
  %76 = icmp ne i32 %75, 0
  br i1 %76, label %78, label %77

77:                                               ; preds = %70, %62
  br label %89

78:                                               ; preds = %70
  %79 = load ptr, ptr %6, align 8, !tbaa !13
  %80 = load ptr, ptr %10, align 8, !tbaa !55
  %81 = call i64 @BIO_ctrl(ptr noundef %79, i32 noundef 44, i64 noundef 0, ptr noundef %80)
  %82 = trunc i64 %81 to i32
  %83 = icmp ne i32 %82, 0
  %84 = zext i1 %83 to i32
  %85 = call i32 @test_true(ptr noundef @.str.44, i32 noundef 967, ptr noundef @.str.106, i32 noundef %84)
  %86 = icmp ne i32 %85, 0
  br i1 %86, label %88, label %87

87:                                               ; preds = %78
  br label %89

88:                                               ; preds = %78
  store i32 1, ptr %3, align 4, !tbaa !9
  br label %89

89:                                               ; preds = %88, %87, %77, %61, %49, %44, %29, %18
  %90 = load ptr, ptr %10, align 8, !tbaa !55
  call void @BIO_ADDR_free(ptr noundef %90)
  %91 = load i32, ptr %3, align 4, !tbaa !9
  call void @llvm.lifetime.end.p0(i64 8, ptr %10) #9
  call void @llvm.lifetime.end.p0(i64 8, ptr %9) #9
  call void @llvm.lifetime.end.p0(i64 4, ptr %8) #9
  call void @llvm.lifetime.end.p0(i64 8, ptr %7) #9
  call void @llvm.lifetime.end.p0(i64 8, ptr %6) #9
  call void @llvm.lifetime.end.p0(i64 8, ptr %5) #9
  call void @llvm.lifetime.end.p0(i64 8, ptr %4) #9
  call void @llvm.lifetime.end.p0(i64 4, ptr %3) #9
  ret i32 %91
}