; Function Attrs: nounwind uwtable
define internal range(i32 0, 2) i32 @hf_set_peer_addr_from(ptr readnone captures(none) %0) #1 {
  %2 = alloca i32, align 4
  %3 = alloca %union.BIO_sock_info_u, align 8
  call void @llvm.lifetime.start.p0(i64 4, ptr nonnull %2) #12
  store i32 -1, ptr %2, align 4, !tbaa !71
  call void @llvm.lifetime.start.p0(i64 8, ptr nonnull %3) #12
  %4 = tail call i32 @test_size_t_lt(ptr noundef nonnull @.str.74, i32 noundef 670, ptr noundef nonnull @.str.93, ptr noundef nonnull @.str.86, i64 noundef 0, i64 noundef 8) #12
  %.not.i = icmp eq i32 %4, 0
  br i1 %.not.i, label %expect_slot_ssl.exit, label %5

5:                                                ; preds = %1
  %6 = tail call ptr @CRYPTO_THREAD_get_local(ptr noundef nonnull @radix_thread) #12
  %7 = getelementptr inbounds nuw i8, ptr %6, i64 104
  %8 = load ptr, ptr %7, align 8, !tbaa !49
  %9 = tail call i32 @test_ptr(ptr noundef nonnull @.str.74, i32 noundef 671, ptr noundef nonnull @.str.94, ptr noundef %8) #12
  %.not3.i = icmp ne i32 %9, 0
  %spec.select.i = zext i1 %.not3.i to i32
  br label %expect_slot_ssl.exit

expect_slot_ssl.exit:                             ; preds = %1, %5
  %.027 = phi ptr [ null, %1 ], [ %8, %5 ]
  %.0.i = phi i32 [ 0, %1 ], [ %spec.select.i, %5 ]
  %10 = tail call i32 @test_true(ptr noundef nonnull @.str.44, i32 noundef 944, ptr noundef nonnull @.str.97, i32 noundef %.0.i) #12
  %.not = icmp eq i32 %10, 0
  br i1 %.not, label %52, label %11

11:                                               ; preds = %expect_slot_ssl.exit
  %12 = tail call i32 @test_size_t_lt(ptr noundef nonnull @.str.74, i32 noundef 670, ptr noundef nonnull @.str.93, ptr noundef nonnull @.str.86, i64 noundef 1, i64 noundef 8) #12
  %.not.i20 = icmp eq i32 %12, 0
  br i1 %.not.i20, label %expect_slot_ssl.exit24, label %13

13:                                               ; preds = %11
  %14 = tail call ptr @CRYPTO_THREAD_get_local(ptr noundef nonnull @radix_thread) #12
  %15 = getelementptr inbounds nuw i8, ptr %14, i64 112
  %16 = load ptr, ptr %15, align 8, !tbaa !49
  %17 = tail call i32 @test_ptr(ptr noundef nonnull @.str.74, i32 noundef 671, ptr noundef nonnull @.str.94, ptr noundef %16) #12
  %.not3.i21 = icmp ne i32 %17, 0
  %spec.select.i22 = zext i1 %.not3.i21 to i32
  br label %expect_slot_ssl.exit24

expect_slot_ssl.exit24:                           ; preds = %11, %13
  %.026 = phi ptr [ null, %11 ], [ %16, %13 ]
  %.0.i23 = phi i32 [ 0, %11 ], [ %spec.select.i22, %13 ]
  %18 = tail call i32 @test_true(ptr noundef nonnull @.str.44, i32 noundef 945, ptr noundef nonnull @.str.98, i32 noundef %.0.i23) #12
  %.not11 = icmp eq i32 %18, 0
  br i1 %.not11, label %52, label %19

19:                                               ; preds = %expect_slot_ssl.exit24
  %20 = tail call ptr @SSL_get_rbio(ptr noundef %.027) #12
  %21 = tail call ptr @SSL_get_rbio(ptr noundef %.026) #12
  %22 = tail call i32 @test_ptr(ptr noundef nonnull @.str.44, i32 noundef 948, ptr noundef nonnull @.str.99, ptr noundef %20) #12
  %.not12 = icmp eq i32 %22, 0
  br i1 %.not12, label %52, label %23

23:                                               ; preds = %19
  %24 = tail call i32 @test_ptr(ptr noundef nonnull @.str.44, i32 noundef 948, ptr noundef nonnull @.str.100, ptr noundef %21) #12
  %.not13 = icmp eq i32 %24, 0
  br i1 %.not13, label %52, label %25

25:                                               ; preds = %23
  %26 = tail call ptr @BIO_ADDR_new() #12
  %27 = tail call i32 @test_ptr(ptr noundef nonnull @.str.44, i32 noundef 951, ptr noundef nonnull @.str.101, ptr noundef %26) #12
  %.not14 = icmp eq i32 %27, 0
  br i1 %.not14, label %52, label %28

28:                                               ; preds = %25
  %29 = call i64 @BIO_ctrl(ptr noundef %21, i32 noundef 105, i64 noundef 0, ptr noundef nonnull %2) #12
  %30 = icmp ne i64 %29, 0
  %31 = zext i1 %30 to i32
  %32 = call i32 @test_true(ptr noundef nonnull @.str.44, i32 noundef 954, ptr noundef nonnull @.str.102, i32 noundef %31) #12
  %.not15 = icmp eq i32 %32, 0
  br i1 %.not15, label %52, label %33

33:                                               ; preds = %28
  %34 = load i32, ptr %2, align 4, !tbaa !71
  %35 = call i32 @test_int_ge(ptr noundef nonnull @.str.44, i32 noundef 955, ptr noundef nonnull @.str.103, ptr noundef nonnull @.str.67, i32 noundef %34, i32 noundef 0) #12
  %.not16 = icmp eq i32 %35, 0
  br i1 %.not16, label %52, label %36

36:                                               ; preds = %33
  store ptr %26, ptr %3, align 8, !tbaa !21
  %37 = load i32, ptr %2, align 4, !tbaa !71
  %38 = call i32 @BIO_sock_info(i32 noundef %37, i32 noundef 0, ptr noundef nonnull %3) #12
  %39 = icmp ne i32 %38, 0
  %40 = zext i1 %39 to i32
  %41 = call i32 @test_true(ptr noundef nonnull @.str.44, i32 noundef 959, ptr noundef nonnull @.str.104, i32 noundef %40) #12
  %.not17 = icmp eq i32 %41, 0
  br i1 %.not17, label %52, label %42

42:                                               ; preds = %36
  %43 = call zeroext i16 @BIO_ADDR_rawport(ptr noundef %26) #12
  %rev.i = call noundef i16 @llvm.bswap.i16(i16 %43)
  %44 = zext i16 %rev.i to i32
  %45 = call i32 @test_int_ge(ptr noundef nonnull @.str.44, i32 noundef 960, ptr noundef nonnull @.str.105, ptr noundef nonnull @.str.67, i32 noundef %44, i32 noundef 0) #12
  %.not18 = icmp eq i32 %45, 0
  br i1 %.not18, label %52, label %46

46:                                               ; preds = %42
  %47 = call i64 @BIO_ctrl(ptr noundef %20, i32 noundef 44, i64 noundef 0, ptr noundef %26) #12
  %48 = and i64 %47, 4294967295
  %49 = icmp ne i64 %48, 0
  %50 = zext i1 %49 to i32
  %51 = call i32 @test_true(ptr noundef nonnull @.str.44, i32 noundef 967, ptr noundef nonnull @.str.106, i32 noundef %50) #12
  %.not19 = icmp ne i32 %51, 0
  %spec.select = zext i1 %.not19 to i32
  br label %52

52:                                               ; preds = %46, %36, %42, %28, %33, %25, %19, %23, %expect_slot_ssl.exit24, %expect_slot_ssl.exit
  %.010 = phi i32 [ 0, %42 ], [ 0, %36 ], [ 0, %33 ], [ 0, %28 ], [ 0, %25 ], [ 0, %23 ], [ 0, %19 ], [ 0, %expect_slot_ssl.exit24 ], [ 0, %expect_slot_ssl.exit ], [ %spec.select, %46 ]
  %.0 = phi ptr [ %26, %42 ], [ %26, %36 ], [ %26, %33 ], [ %26, %28 ], [ %26, %25 ], [ null, %23 ], [ null, %19 ], [ null, %expect_slot_ssl.exit24 ], [ null, %expect_slot_ssl.exit ], [ %26, %46 ]
  call void @BIO_ADDR_free(ptr noundef %.0) #12
  call void @llvm.lifetime.end.p0(i64 8, ptr nonnull %3) #12
  call void @llvm.lifetime.end.p0(i64 4, ptr nonnull %2) #12
  ret i32 %.010
}